target datalayout = "e-m:e-p270:32:32-p271:32:32-p272:64:64-i64:64-i128:128-f80:128-n8:16:32:64-S128"
target triple = "x86_64-pc-linux-gnu"

%"class.icu_77::FormattedValueFieldPositionIteratorImpl" = type { %"class.icu_77::FormattedValue", %"class.icu_77::UnicodeString", %"class.icu_77::UVector32" }
%"class.icu_77::FormattedValue" = type { ptr }
%"class.icu_77::UnicodeString" = type { %"class.icu_77::Replaceable", %"union.icu_77::UnicodeString::StackBufferOrFields" }
%"class.icu_77::Replaceable" = type { %"class.icu_77::UObject" }
%"class.icu_77::UObject" = type { ptr }
%"union.icu_77::UnicodeString::StackBufferOrFields" = type { %struct.anon.0, [32 x i8] }
%struct.anon.0 = type { i16, i32, i32, ptr }
%"class.icu_77::UVector32" = type { %"class.icu_77::UObject", i32, i32, i32, ptr }

; Function Attrs: inlinehint mustprogress nounwind uwtable
define linkonce_odr noundef i32 @_ZNK6icu_779UVector3210elementAtiEi(ptr noundef nonnull align 8 dereferenceable(32) %0, i32 noundef %1) #2 comdat align 2 {
  %3 = alloca ptr, align 8
  %4 = alloca i32, align 4
  store ptr %0, ptr %3, align 8, !tbaa !47
  store i32 %1, ptr %4, align 4, !tbaa !14
  %5 = load ptr, ptr %3, align 8
  %6 = load i32, ptr %4, align 4, !tbaa !14
  %7 = icmp sge i32 %6, 0
  br i1 %7, label %8, label %25

8:                                                ; preds = %2
  %9 = getelementptr inbounds nuw %"class.icu_77::UVector32", ptr %5, i32 0, i32 1
  %10 = load i32, ptr %9, align 8, !tbaa !49
  %11 = icmp sgt i32 %10, 0
  br i1 %11, label %12, label %25

12:                                               ; preds = %8
  %13 = getelementptr inbounds nuw %"class.icu_77::UVector32", ptr %5, i32 0, i32 1
  %14 = load i32, ptr %13, align 8, !tbaa !49
  %15 = load i32, ptr %4, align 4, !tbaa !14
  %16 = sub nsw i32 %14, %15
  %17 = icmp sgt i32 %16, 0
  br i1 %17, label %18, label %25

18:                                               ; preds = %12
  %19 = getelementptr inbounds nuw %"class.icu_77::UVector32", ptr %5, i32 0, i32 4
  %20 = load ptr, ptr %19, align 8, !tbaa !54
  %21 = load i32, ptr %4, align 4, !tbaa !14
  %22 = sext i32 %21 to i64
  %23 = getelementptr inbounds i32, ptr %20, i64 %22
  %24 = load i32, ptr %23, align 4, !tbaa !14
  br label %26

25:                                               ; preds = %12, %8, %2
  br label %26

26:                                               ; preds = %25, %18
  %27 = phi i32 [ %24, %18 ], [ 0, %25 ]
  ret i32 %27
}

; Function Attrs: inlinehint mustprogress nounwind uwtable
define linkonce_odr noundef i32 @_ZNK6icu_779UVector324sizeEv(ptr noundef nonnull align 8 dereferenceable(32) %0) #2 comdat align 2 {
  %2 = alloca ptr, align 8
  store ptr %0, ptr %2, align 8, !tbaa !47
  %3 = load ptr, ptr %2, align 8
  %4 = getelementptr inbounds nuw %"class.icu_77::UVector32", ptr %3, i32 0, i32 1
  %5 = load i32, ptr %4, align 8, !tbaa !49
  ret i32 %5
}

; Function Attrs: mustprogress uwtable
define void @_ZN6icu_7739FormattedValueFieldPositionIteratorImpl4sortEv(ptr noundef nonnull align 8 dereferenceable(104) %0) #1 align 2 {
  %2 = alloca ptr, align 8
  %3 = alloca i32, align 4
  %4 = alloca i8, align 1
  %5 = alloca i32, align 4
  %6 = alloca i32, align 4
  %7 = alloca i32, align 4
  %8 = alloca i32, align 4
  %9 = alloca i32, align 4
  %10 = alloca i32, align 4
  %11 = alloca i32, align 4
  %12 = alloca i32, align 4
  %13 = alloca i32, align 4
  %14 = alloca i64, align 8
  %15 = alloca i32, align 4
  store ptr %0, ptr %2, align 8, !tbaa !23
  %16 = load ptr, ptr %2, align 8
  call void @llvm.lifetime.start.p0(i64 4, ptr %3) #10
  %17 = getelementptr inbounds nuw %"class.icu_77::FormattedValueFieldPositionIteratorImpl", ptr %16, i32 0, i32 2
  %18 = call noundef i32 @_ZNK6icu_779UVector324sizeEv(ptr noundef nonnull align 8 dereferenceable(32) %17)
  %19 = sdiv i32 %18, 4
  store i32 %19, ptr %3, align 4, !tbaa !14
  br label %20

20:                                               ; preds = %162, %1
  br label %21

21:                                               ; preds = %20
  call void @llvm.lifetime.start.p0(i64 1, ptr %4) #10
  store i8 1, ptr %4, align 1, !tbaa !57
  call void @llvm.lifetime.start.p0(i64 4, ptr %5) #10
  store i32 0, ptr %5, align 4, !tbaa !14
  br label %22

22:                                               ; preds = %152, %21
  %23 = load i32, ptr %5, align 4, !tbaa !14
  %24 = load i32, ptr %3, align 4, !tbaa !14
  %25 = sub nsw i32 %24, 1
  %26 = icmp slt i32 %23, %25
  br i1 %26, label %28, label %27

27:                                               ; preds = %22
  call void @llvm.lifetime.end.p0(i64 4, ptr %5) #10
  br label %155

28:                                               ; preds = %22
  call void @llvm.lifetime.start.p0(i64 4, ptr %6) #10
  %29 = getelementptr inbounds nuw %"class.icu_77::FormattedValueFieldPositionIteratorImpl", ptr %16, i32 0, i32 2
  %30 = load i32, ptr %5, align 4, !tbaa !14
  %31 = mul nsw i32 %30, 4
  %32 = add nsw i32 %31, 0
  %33 = call noundef i32 @_ZNK6icu_779UVector3210elementAtiEi(ptr noundef nonnull align 8 dereferenceable(32) %29, i32 noundef %32)
  store i32 %33, ptr %6, align 4, !tbaa !14
  call void @llvm.lifetime.start.p0(i64 4, ptr %7) #10
  %34 = getelementptr inbounds nuw %"class.icu_77::FormattedValueFieldPositionIteratorImpl", ptr %16, i32 0, i32 2
  %35 = load i32, ptr %5, align 4, !tbaa !14
  %36 = mul nsw i32 %35, 4
  %37 = add nsw i32 %36, 1
  %38 = call noundef i32 @_ZNK6icu_779UVector3210elementAtiEi(ptr noundef nonnull align 8 dereferenceable(32) %34, i32 noundef %37)
  store i32 %38, ptr %7, align 4, !tbaa !14
  call void @llvm.lifetime.start.p0(i64 4, ptr %8) #10
  %39 = getelementptr inbounds nuw %"class.icu_77::FormattedValueFieldPositionIteratorImpl", ptr %16, i32 0, i32 2
  %40 = load i32, ptr %5, align 4, !tbaa !14
  %41 = mul nsw i32 %40, 4
  %42 = add nsw i32 %41, 2
  %43 = call noundef i32 @_ZNK6icu_779UVector3210elementAtiEi(ptr noundef nonnull align 8 dereferenceable(32) %39, i32 noundef %42)
  store i32 %43, ptr %8, align 4, !tbaa !14
  call void @llvm.lifetime.start.p0(i64 4, ptr %9) #10
  %44 = getelementptr inbounds nuw %"class.icu_77::FormattedValueFieldPositionIteratorImpl", ptr %16, i32 0, i32 2
  %45 = load i32, ptr %5, align 4, !tbaa !14
  %46 = mul nsw i32 %45, 4
  %47 = add nsw i32 %46, 3
  %48 = call noundef i32 @_ZNK6icu_779UVector3210elementAtiEi(ptr noundef nonnull align 8 dereferenceable(32) %44, i32 noundef %47)
  store i32 %48, ptr %9, align 4, !tbaa !14
  call void @llvm.lifetime.start.p0(i64 4, ptr %10) #10
  %49 = getelementptr inbounds nuw %"class.icu_77::FormattedValueFieldPositionIteratorImpl", ptr %16, i32 0, i32 2
  %50 = load i32, ptr %5, align 4, !tbaa !14
  %51 = mul nsw i32 %50, 4
  %52 = add nsw i32 %51, 4
  %53 = call noundef i32 @_ZNK6icu_779UVector3210elementAtiEi(ptr noundef nonnull align 8 dereferenceable(32) %49, i32 noundef %52)
  store i32 %53, ptr %10, align 4, !tbaa !14
  call void @llvm.lifetime.start.p0(i64 4, ptr %11) #10
  %54 = getelementptr inbounds nuw %"class.icu_77::FormattedValueFieldPositionIteratorImpl", ptr %16, i32 0, i32 2
  %55 = load i32, ptr %5, align 4, !tbaa !14
  %56 = mul nsw i32 %55, 4
  %57 = add nsw i32 %56, 5
  %58 = call noundef i32 @_ZNK6icu_779UVector3210elementAtiEi(ptr noundef nonnull align 8 dereferenceable(32) %54, i32 noundef %57)
  store i32 %58, ptr %11, align 4, !tbaa !14
  call void @llvm.lifetime.start.p0(i64 4, ptr %12) #10
  %59 = getelementptr inbounds nuw %"class.icu_77::FormattedValueFieldPositionIteratorImpl", ptr %16, i32 0, i32 2
  %60 = load i32, ptr %5, align 4, !tbaa !14
  %61 = mul nsw i32 %60, 4
  %62 = add nsw i32 %61, 6
  %63 = call noundef i32 @_ZNK6icu_779UVector3210elementAtiEi(ptr noundef nonnull align 8 dereferenceable(32) %59, i32 noundef %62)
  store i32 %63, ptr %12, align 4, !tbaa !14
  call void @llvm.lifetime.start.p0(i64 4, ptr %13) #10
  %64 = getelementptr inbounds nuw %"class.icu_77::FormattedValueFieldPositionIteratorImpl", ptr %16, i32 0, i32 2
  %65 = load i32, ptr %5, align 4, !tbaa !14
  %66 = mul nsw i32 %65, 4
  %67 = add nsw i32 %66, 7
  %68 = call noundef i32 @_ZNK6icu_779UVector3210elementAtiEi(ptr noundef nonnull align 8 dereferenceable(32) %64, i32 noundef %67)
  store i32 %68, ptr %13, align 4, !tbaa !14
  call void @llvm.lifetime.start.p0(i64 8, ptr %14) #10
  store i64 0, ptr %14, align 8, !tbaa !18
  %69 = load i32, ptr %8, align 4, !tbaa !14
  %70 = load i32, ptr %12, align 4, !tbaa !14
  %71 = icmp ne i32 %69, %70
  br i1 %71, label %72, label %77

72:                                               ; preds = %28
  %73 = load i32, ptr %12, align 4, !tbaa !14
  %74 = load i32, ptr %8, align 4, !tbaa !14
  %75 = sub nsw i32 %73, %74
  %76 = sext i32 %75 to i64
  store i64 %76, ptr %14, align 8, !tbaa !18
  br label %107

77:                                               ; preds = %28
  %78 = load i32, ptr %9, align 4, !tbaa !14
  %79 = load i32, ptr %13, align 4, !tbaa !14
  %80 = icmp ne i32 %78, %79
  br i1 %80, label %81, label %86

81:                                               ; preds = %77
  %82 = load i32, ptr %9, align 4, !tbaa !14
  %83 = load i32, ptr %13, align 4, !tbaa !14
  %84 = sub nsw i32 %82, %83
  %85 = sext i32 %84 to i64
  store i64 %85, ptr %14, align 8, !tbaa !18
  br label %106

86:                                               ; preds = %77
  %87 = load i32, ptr %6, align 4, !tbaa !14
  %88 = load i32, ptr %10, align 4, !tbaa !14
  %89 = icmp ne i32 %87, %88
  br i1 %89, label %90, label %95

90:                                               ; preds = %86
  %91 = load i32, ptr %6, align 4, !tbaa !14
  %92 = load i32, ptr %10, align 4, !tbaa !14
  %93 = sub nsw i32 %91, %92
  %94 = sext i32 %93 to i64
  store i64 %94, ptr %14, align 8, !tbaa !18
  br label %105

95:                                               ; preds = %86
  %96 = load i32, ptr %7, align 4, !tbaa !14
  %97 = load i32, ptr %11, align 4, !tbaa !14
  %98 = icmp ne i32 %96, %97
  br i1 %98, label %99, label %104

99:                                               ; preds = %95
  %100 = load i32, ptr %11, align 4, !tbaa !14
  %101 = load i32, ptr %7, align 4, !tbaa !14
  %102 = sub nsw i32 %100, %101
  %103 = sext i32 %102 to i64
  store i64 %103, ptr %14, align 8, !tbaa !18
  br label %104

104:                                              ; preds = %99, %95
  br label %105

105:                                              ; preds = %104, %90
  br label %106

106:                                              ; preds = %105, %81
  br label %107

107:                                              ; preds = %106, %72
  %108 = load i64, ptr %14, align 8, !tbaa !18
  %109 = icmp slt i64 %108, 0
  br i1 %109, label %110, label %151

110:                                              ; preds = %107
  store i8 0, ptr %4, align 1, !tbaa !57
  %111 = getelementptr inbounds nuw %"class.icu_77::FormattedValueFieldPositionIteratorImpl", ptr %16, i32 0, i32 2
  %112 = load i32, ptr %10, align 4, !tbaa !14
  %113 = load i32, ptr %5, align 4, !tbaa !14
  %114 = mul nsw i32 %113, 4
  %115 = add nsw i32 %114, 0
  call void @_ZN6icu_779UVector3212setElementAtEii(ptr noundef nonnull align 8 dereferenceable(32) %111, i32 noundef %112, i32 noundef %115)
  %116 = getelementptr inbounds nuw %"class.icu_77::FormattedValueFieldPositionIteratorImpl", ptr %16, i32 0, i32 2
  %117 = load i32, ptr %11, align 4, !tbaa !14
  %118 = load i32, ptr %5, align 4, !tbaa !14
  %119 = mul nsw i32 %118, 4
  %120 = add nsw i32 %119, 1
  call void @_ZN6icu_779UVector3212setElementAtEii(ptr noundef nonnull align 8 dereferenceable(32) %116, i32 noundef %117, i32 noundef %120)
  %121 = getelementptr inbounds nuw %"class.icu_77::FormattedValueFieldPositionIteratorImpl", ptr %16, i32 0, i32 2
  %122 = load i32, ptr %12, align 4, !tbaa !14
  %123 = load i32, ptr %5, align 4, !tbaa !14
  %124 = mul nsw i32 %123, 4
  %125 = add nsw i32 %124, 2
  call void @_ZN6icu_779UVector3212setElementAtEii(ptr noundef nonnull align 8 dereferenceable(32) %121, i32 noundef %122, i32 noundef %125)
  %126 = getelementptr inbounds nuw %"class.icu_77::FormattedValueFieldPositionIteratorImpl", ptr %16, i32 0, i32 2
  %127 = load i32, ptr %13, align 4, !tbaa !14
  %128 = load i32, ptr %5, align 4, !tbaa !14
  %129 = mul nsw i32 %128, 4
  %130 = add nsw i32 %129, 3
  call void @_ZN6icu_779UVector3212setElementAtEii(ptr noundef nonnull align 8 dereferenceable(32) %126, i32 noundef %127, i32 noundef %130)
  %131 = getelementptr inbounds nuw %"class.icu_77::FormattedValueFieldPositionIteratorImpl", ptr %16, i32 0, i32 2
  %132 = load i32, ptr %6, align 4, !tbaa !14
  %133 = load i32, ptr %5, align 4, !tbaa !14
  %134 = mul nsw i32 %133, 4
  %135 = add nsw i32 %134, 4
  call void @_ZN6icu_779UVector3212setElementAtEii(ptr noundef nonnull align 8 dereferenceable(32) %131, i32 noundef %132, i32 noundef %135)
  %136 = getelementptr inbounds nuw %"class.icu_77::FormattedValueFieldPositionIteratorImpl", ptr %16, i32 0, i32 2
  %137 = load i32, ptr %7, align 4, !tbaa !14
  %138 = load i32, ptr %5, align 4, !tbaa !14
  %139 = mul nsw i32 %138, 4
  %140 = add nsw i32 %139, 5
  call void @_ZN6icu_779UVector3212setElementAtEii(ptr noundef nonnull align 8 dereferenceable(32) %136, i32 noundef %137, i32 noundef %140)
  %141 = getelementptr inbounds nuw %"class.icu_77::FormattedValueFieldPositionIteratorImpl", ptr %16, i32 0, i32 2
  %142 = load i32, ptr %8, align 4, !tbaa !14
  %143 = load i32, ptr %5, align 4, !tbaa !14
  %144 = mul nsw i32 %143, 4
  %145 = add nsw i32 %144, 6
  call void @_ZN6icu_779UVector3212setElementAtEii(ptr noundef nonnull align 8 dereferenceable(32) %141, i32 noundef %142, i32 noundef %145)
  %146 = getelementptr inbounds nuw %"class.icu_77::FormattedValueFieldPositionIteratorImpl", ptr %16, i32 0, i32 2
  %147 = load i32, ptr %9, align 4, !tbaa !14
  %148 = load i32, ptr %5, align 4, !tbaa !14
  %149 = mul nsw i32 %148, 4
  %150 = add nsw i32 %149, 7
  call void @_ZN6icu_779UVector3212setElementAtEii(ptr noundef nonnull align 8 dereferenceable(32) %146, i32 noundef %147, i32 noundef %150)
  br label %151

151:                                              ; preds = %110, %107
  call void @llvm.lifetime.end.p0(i64 8, ptr %14) #10
  call void @llvm.lifetime.end.p0(i64 4, ptr %13) #10
  call void @llvm.lifetime.end.p0(i64 4, ptr %12) #10
  call void @llvm.lifetime.end.p0(i64 4, ptr %11) #10
  call void @llvm.lifetime.end.p0(i64 4, ptr %10) #10
  call void @llvm.lifetime.end.p0(i64 4, ptr %9) #10
  call void @llvm.lifetime.end.p0(i64 4, ptr %8) #10
  call void @llvm.lifetime.end.p0(i64 4, ptr %7) #10
  call void @llvm.lifetime.end.p0(i64 4, ptr %6) #10
  br label %152

152:                                              ; preds = %151
  %153 = load i32, ptr %5, align 4, !tbaa !14
  %154 = add nsw i32 %153, 1
  store i32 %154, ptr %5, align 4, !tbaa !14
  br label %22, !llvm.loop !59

155:                                              ; preds = %27
  %156 = load i8, ptr %4, align 1, !tbaa !57, !range !60, !noundef !61
  %157 = trunc i8 %156 to i1
  br i1 %157, label %158, label %159

158:                                              ; preds = %155
  store i32 3, ptr %15, align 4
  br label %160

159:                                              ; preds = %155
  store i32 0, ptr %15, align 4
  br label %160

160:                                              ; preds = %159, %158
  call void @llvm.lifetime.end.p0(i64 1, ptr %4) #10
  %161 = load i32, ptr %15, align 4
  switch i32 %161, label %164 [
    i32 0, label %162
    i32 3, label %163
  ]

162:                                              ; preds = %160
  br label %20, !llvm.loop !62

163:                                              ; preds = %160
  call void @llvm.lifetime.end.p0(i64 4, ptr %3) #10
  ret void

164:                                              ; preds = %160
  unreachable
}