; Function Attrs: mustprogress uwtable
define void @_ZN6icu_7739FormattedValueFieldPositionIteratorImpl4sortEv(ptr noundef nonnull align 8 dereferenceable(104) %0) local_unnamed_addr #1 align 2 {
  %2 = getelementptr inbounds nuw i8, ptr %0, i64 72
  %3 = getelementptr inbounds nuw i8, ptr %0, i64 80
  %4 = load i32, ptr %3, align 8, !tbaa !22
  %5 = icmp sgt i32 %4, 7
  %6 = getelementptr inbounds nuw i8, ptr %0, i64 96
  br i1 %5, label %.lr.ph.us.preheader, label %.split78.us

.lr.ph.us.preheader:                              ; preds = %1
  %7 = lshr i32 %4, 2
  %smax = add nsw i32 %7, -1
  %wide.trip.count = zext nneg i32 %smax to i64
  br label %.lr.ph.us

.lr.ph.us:                                        ; preds = %.thread.us, %.lr.ph.us.preheader
  %indvars.iv = phi i64 [ %indvars.iv.next.mux, %.thread.us ], [ 0, %.lr.ph.us.preheader ]
  %.04776.us = phi i1 [ %.1.us.mux, %.thread.us ], [ true, %.lr.ph.us.preheader ]
  %8 = shl nsw i64 %indvars.iv, 2
  %9 = load i32, ptr %3, align 8
  %10 = sext i32 %9 to i64
  %11 = icmp slt i64 %8, %10
  br i1 %11, label %12, label %_ZNK6icu_779UVector3210elementAtiEi.exit.us

12:                                               ; preds = %.lr.ph.us
  %13 = load ptr, ptr %6, align 8, !tbaa !29
  %14 = getelementptr inbounds nuw i32, ptr %13, i64 %8
  %15 = load i32, ptr %14, align 4, !tbaa !12
  br label %_ZNK6icu_779UVector3210elementAtiEi.exit.us

_ZNK6icu_779UVector3210elementAtiEi.exit.us:      ; preds = %12, %.lr.ph.us
  %16 = phi i32 [ %15, %12 ], [ 0, %.lr.ph.us ]
  %17 = or disjoint i64 %8, 1
  %18 = icmp slt i64 %17, %10
  br i1 %18, label %19, label %_ZNK6icu_779UVector3210elementAtiEi.exit61.us

19:                                               ; preds = %_ZNK6icu_779UVector3210elementAtiEi.exit.us
  %20 = load ptr, ptr %6, align 8, !tbaa !29
  %21 = getelementptr inbounds nuw i32, ptr %20, i64 %17
  %22 = load i32, ptr %21, align 4, !tbaa !12
  br label %_ZNK6icu_779UVector3210elementAtiEi.exit61.us

_ZNK6icu_779UVector3210elementAtiEi.exit61.us:    ; preds = %19, %_ZNK6icu_779UVector3210elementAtiEi.exit.us
  %23 = phi i32 [ %22, %19 ], [ 0, %_ZNK6icu_779UVector3210elementAtiEi.exit.us ]
  %24 = or disjoint i64 %8, 2
  %25 = icmp slt i64 %24, %10
  br i1 %25, label %26, label %_ZNK6icu_779UVector3210elementAtiEi.exit63.us

26:                                               ; preds = %_ZNK6icu_779UVector3210elementAtiEi.exit61.us
  %27 = load ptr, ptr %6, align 8, !tbaa !29
  %28 = getelementptr inbounds nuw i32, ptr %27, i64 %24
  %29 = load i32, ptr %28, align 4, !tbaa !12
  br label %_ZNK6icu_779UVector3210elementAtiEi.exit63.us

_ZNK6icu_779UVector3210elementAtiEi.exit63.us:    ; preds = %26, %_ZNK6icu_779UVector3210elementAtiEi.exit61.us
  %30 = phi i32 [ %29, %26 ], [ 0, %_ZNK6icu_779UVector3210elementAtiEi.exit61.us ]
  %31 = or disjoint i64 %8, 3
  %32 = icmp slt i64 %31, %10
  br i1 %32, label %33, label %_ZNK6icu_779UVector3210elementAtiEi.exit65.us

33:                                               ; preds = %_ZNK6icu_779UVector3210elementAtiEi.exit63.us
  %34 = load ptr, ptr %6, align 8, !tbaa !29
  %35 = getelementptr inbounds nuw i32, ptr %34, i64 %31
  %36 = load i32, ptr %35, align 4, !tbaa !12
  br label %_ZNK6icu_779UVector3210elementAtiEi.exit65.us

_ZNK6icu_779UVector3210elementAtiEi.exit65.us:    ; preds = %33, %_ZNK6icu_779UVector3210elementAtiEi.exit63.us
  %37 = phi i32 [ %36, %33 ], [ 0, %_ZNK6icu_779UVector3210elementAtiEi.exit63.us ]
  %38 = add nuw nsw i64 %8, 4
  %39 = icmp slt i64 %38, %10
  br i1 %39, label %40, label %_ZNK6icu_779UVector3210elementAtiEi.exit67.us

40:                                               ; preds = %_ZNK6icu_779UVector3210elementAtiEi.exit65.us
  %41 = load ptr, ptr %6, align 8, !tbaa !29
  %42 = getelementptr inbounds nuw i32, ptr %41, i64 %38
  %43 = load i32, ptr %42, align 4, !tbaa !12
  br label %_ZNK6icu_779UVector3210elementAtiEi.exit67.us

_ZNK6icu_779UVector3210elementAtiEi.exit67.us:    ; preds = %40, %_ZNK6icu_779UVector3210elementAtiEi.exit65.us
  %44 = phi i32 [ %43, %40 ], [ 0, %_ZNK6icu_779UVector3210elementAtiEi.exit65.us ]
  %45 = add nuw nsw i64 %8, 5
  %46 = icmp slt i64 %45, %10
  br i1 %46, label %47, label %_ZNK6icu_779UVector3210elementAtiEi.exit69.us

47:                                               ; preds = %_ZNK6icu_779UVector3210elementAtiEi.exit67.us
  %48 = load ptr, ptr %6, align 8, !tbaa !29
  %49 = getelementptr inbounds nuw i32, ptr %48, i64 %45
  %50 = load i32, ptr %49, align 4, !tbaa !12
  br label %_ZNK6icu_779UVector3210elementAtiEi.exit69.us

_ZNK6icu_779UVector3210elementAtiEi.exit69.us:    ; preds = %47, %_ZNK6icu_779UVector3210elementAtiEi.exit67.us
  %51 = phi i32 [ %50, %47 ], [ 0, %_ZNK6icu_779UVector3210elementAtiEi.exit67.us ]
  %52 = add nuw nsw i64 %8, 6
  %53 = icmp slt i64 %52, %10
  br i1 %53, label %54, label %_ZNK6icu_779UVector3210elementAtiEi.exit71.us

54:                                               ; preds = %_ZNK6icu_779UVector3210elementAtiEi.exit69.us
  %55 = load ptr, ptr %6, align 8, !tbaa !29
  %56 = getelementptr inbounds nuw i32, ptr %55, i64 %52
  %57 = load i32, ptr %56, align 4, !tbaa !12
  br label %_ZNK6icu_779UVector3210elementAtiEi.exit71.us

_ZNK6icu_779UVector3210elementAtiEi.exit71.us:    ; preds = %54, %_ZNK6icu_779UVector3210elementAtiEi.exit69.us
  %58 = phi i32 [ %57, %54 ], [ 0, %_ZNK6icu_779UVector3210elementAtiEi.exit69.us ]
  %59 = add nuw nsw i64 %8, 7
  %60 = icmp slt i64 %59, %10
  br i1 %60, label %61, label %_ZNK6icu_779UVector3210elementAtiEi.exit73.us

61:                                               ; preds = %_ZNK6icu_779UVector3210elementAtiEi.exit71.us
  %62 = load ptr, ptr %6, align 8, !tbaa !29
  %63 = getelementptr inbounds nuw i32, ptr %62, i64 %59
  %64 = load i32, ptr %63, align 4, !tbaa !12
  br label %_ZNK6icu_779UVector3210elementAtiEi.exit73.us

_ZNK6icu_779UVector3210elementAtiEi.exit73.us:    ; preds = %61, %_ZNK6icu_779UVector3210elementAtiEi.exit71.us
  %65 = phi i32 [ %64, %61 ], [ 0, %_ZNK6icu_779UVector3210elementAtiEi.exit71.us ]
  %.not.us = icmp eq i32 %30, %58
  br i1 %.not.us, label %68, label %66

66:                                               ; preds = %_ZNK6icu_779UVector3210elementAtiEi.exit73.us
  %67 = sub nsw i32 %58, %30
  br label %77

68:                                               ; preds = %_ZNK6icu_779UVector3210elementAtiEi.exit73.us
  %.not57.us = icmp eq i32 %37, %65
  br i1 %.not57.us, label %71, label %69

69:                                               ; preds = %68
  %70 = sub nsw i32 %37, %65
  br label %77

71:                                               ; preds = %68
  %.not58.us = icmp eq i32 %16, %44
  br i1 %.not58.us, label %74, label %72

72:                                               ; preds = %71
  %73 = sub nsw i32 %16, %44
  br label %77

74:                                               ; preds = %71
  %.not59.us = icmp eq i32 %23, %51
  br i1 %.not59.us, label %.thread.us, label %75

75:                                               ; preds = %74
  %76 = sub nsw i32 %51, %23
  br label %77

77:                                               ; preds = %75, %72, %69, %66
  %.046.in.us = phi i32 [ %67, %66 ], [ %70, %69 ], [ %73, %72 ], [ %76, %75 ]
  %78 = icmp slt i32 %.046.in.us, 0
  br i1 %78, label %79, label %.thread.us

79:                                               ; preds = %77
  %80 = trunc nuw nsw i64 %8 to i32
  tail call void @_ZN6icu_779UVector3212setElementAtEii(ptr noundef nonnull align 8 dereferenceable(32) %2, i32 noundef %44, i32 noundef %80)
  %81 = trunc nuw nsw i64 %17 to i32
  tail call void @_ZN6icu_779UVector3212setElementAtEii(ptr noundef nonnull align 8 dereferenceable(32) %2, i32 noundef %51, i32 noundef %81)
  %82 = trunc nuw nsw i64 %24 to i32
  tail call void @_ZN6icu_779UVector3212setElementAtEii(ptr noundef nonnull align 8 dereferenceable(32) %2, i32 noundef %58, i32 noundef %82)
  %83 = trunc nuw nsw i64 %31 to i32
  tail call void @_ZN6icu_779UVector3212setElementAtEii(ptr noundef nonnull align 8 dereferenceable(32) %2, i32 noundef %65, i32 noundef %83)
  %84 = trunc nuw nsw i64 %38 to i32
  tail call void @_ZN6icu_779UVector3212setElementAtEii(ptr noundef nonnull align 8 dereferenceable(32) %2, i32 noundef %16, i32 noundef %84)
  %85 = trunc nuw nsw i64 %45 to i32
  tail call void @_ZN6icu_779UVector3212setElementAtEii(ptr noundef nonnull align 8 dereferenceable(32) %2, i32 noundef %23, i32 noundef %85)
  %86 = trunc nuw nsw i64 %52 to i32
  tail call void @_ZN6icu_779UVector3212setElementAtEii(ptr noundef nonnull align 8 dereferenceable(32) %2, i32 noundef %30, i32 noundef %86)
  %87 = trunc nuw nsw i64 %59 to i32
  tail call void @_ZN6icu_779UVector3212setElementAtEii(ptr noundef nonnull align 8 dereferenceable(32) %2, i32 noundef %37, i32 noundef %87)
  br label %.thread.us

.thread.us:                                       ; preds = %79, %77, %74
  %.1.us = phi i1 [ false, %79 ], [ %.04776.us, %77 ], [ %.04776.us, %74 ]
  %indvars.iv.next = add nuw nsw i64 %indvars.iv, 1
  %exitcond.not = icmp eq i64 %indvars.iv.next, %wide.trip.count
  %brmerge.not = select i1 %exitcond.not, i1 %.1.us, i1 false
  %indvars.iv.next.mux = select i1 %exitcond.not, i64 0, i64 %indvars.iv.next
  %.1.us.mux = select i1 %exitcond.not, i1 true, i1 %.1.us
  br i1 %brmerge.not, label %.split78.us, label %.lr.ph.us, !llvm.loop !34

.split78.us:                                      ; preds = %.thread.us, %1
  ret void
}